target datalayout = "e-m:e-p270:32:32-p271:32:32-p272:64:64-i64:64-i128:128-f80:128-n8:16:32:64-S128"
target triple = "x86_64-pc-linux-gnu"

; Function Attrs: mustprogress nounwind uwtable
define internal noundef i64 @_ZL14alignment_maskImTnNSt9enable_ifIXcvbsr3std11is_integralIT_EE5valueEiE4typeELi0EES1_S1_(i64 noundef %0) #1 {
  %2 = alloca i64, align 8
  store i64 %0, ptr %2, align 8
  %3 = load i64, ptr %2, align 8
  %4 = sub i64 %3, 1
  ret i64 %4
}

; Function Attrs: mustprogress nounwind uwtable
define linkonce_odr hidden noundef i64 @_Z10align_downImmTnNSt9enable_ifIXcvbsr3std11is_integralIT_EE5valueEiE4typeELi0EES1_S1_T0_(i64 noundef %0, i64 noundef %1) #1 comdat {
  %3 = alloca i64, align 8
  %4 = alloca i64, align 8
  %5 = alloca i64, align 8
  store i64 %0, ptr %3, align 8
  store i64 %1, ptr %4, align 8
  %6 = load i64, ptr %3, align 8
  %7 = load i64, ptr %4, align 8
  %8 = call noundef i64 @_ZL14alignment_maskImTnNSt9enable_ifIXcvbsr3std11is_integralIT_EE5valueEiE4typeELi0EES1_S1_(i64 noundef %7)
  %9 = xor i64 %8, -1
  %10 = and i64 %6, %9
  store i64 %10, ptr %5, align 8
  %11 = load i64, ptr %5, align 8
  ret i64 %11
}

; Function Attrs: mustprogress nounwind uwtable
define hidden noundef i64 @_ZNK22XPhysicalMemoryBacking14commit_defaultEmm(ptr noundef nonnull align 8 dereferenceable(41) %0, i64 noundef %1, i64 noundef %2) #1 align 2 {
  %4 = alloca i64, align 8
  %5 = alloca ptr, align 8
  %6 = alloca i64, align 8
  %7 = alloca i64, align 8
  %8 = alloca i64, align 8
  %9 = alloca i64, align 8
  store ptr %0, ptr %5, align 8
  store i64 %1, ptr %6, align 8
  store i64 %2, ptr %7, align 8
  %10 = load ptr, ptr %5, align 8
  %11 = load i64, ptr %6, align 8
  %12 = load i64, ptr %7, align 8
  %13 = call noundef zeroext i1 @_ZNK22XPhysicalMemoryBacking12commit_innerEmm(ptr noundef nonnull align 8 dereferenceable(41) %10, i64 noundef %11, i64 noundef %12)
  br i1 %13, label %14, label %16

14:                                               ; preds = %3
  %15 = load i64, ptr %7, align 8
  store i64 %15, ptr %4, align 8
  br label %46

16:                                               ; preds = %3
  %17 = load i64, ptr %6, align 8
  store i64 %17, ptr %8, align 8
  %18 = load i64, ptr %6, align 8
  %19 = load i64, ptr %7, align 8
  %20 = add i64 %18, %19
  store i64 %20, ptr %9, align 8
  br label %21

21:                                               ; preds = %45, %16
  %22 = load i64, ptr %9, align 8
  %23 = load i64, ptr %8, align 8
  %24 = sub i64 %22, %23
  %25 = udiv i64 %24, 2
  %26 = call noundef i64 @_Z10align_downImmTnNSt9enable_ifIXcvbsr3std11is_integralIT_EE5valueEiE4typeELi0EES1_S1_T0_(i64 noundef %25, i64 noundef 2097152)
  store i64 %26, ptr %7, align 8
  %27 = load i64, ptr %7, align 8
  %28 = icmp ult i64 %27, 2097152
  br i1 %28, label %29, label %33

29:                                               ; preds = %21
  %30 = load i64, ptr %8, align 8
  %31 = load i64, ptr %6, align 8
  %32 = sub i64 %30, %31
  store i64 %32, ptr %4, align 8
  br label %46

33:                                               ; preds = %21
  %34 = load i64, ptr %8, align 8
  %35 = load i64, ptr %7, align 8
  %36 = call noundef zeroext i1 @_ZNK22XPhysicalMemoryBacking12commit_innerEmm(ptr noundef nonnull align 8 dereferenceable(41) %10, i64 noundef %34, i64 noundef %35)
  br i1 %36, label %37, label %41

37:                                               ; preds = %33
  %38 = load i64, ptr %7, align 8
  %39 = load i64, ptr %8, align 8
  %40 = add i64 %39, %38
  store i64 %40, ptr %8, align 8
  br label %45

41:                                               ; preds = %33
  %42 = load i64, ptr %7, align 8
  %43 = load i64, ptr %9, align 8
  %44 = sub i64 %43, %42
  store i64 %44, ptr %9, align 8
  br label %45

45:                                               ; preds = %41, %37
  br label %21, !llvm.loop !11

46:                                               ; preds = %29, %14
  %47 = load i64, ptr %4, align 8
  ret i64 %47
}