; Function Attrs: mustprogress nounwind uwtable
define hidden noundef i64 @_ZNK22XPhysicalMemoryBacking14commit_defaultEmm(ptr noundef nonnull align 8 dereferenceable(41) %0, i64 noundef %1, i64 noundef %2) local_unnamed_addr #0 align 2 {
  %4 = tail call noundef zeroext i1 @_ZNK22XPhysicalMemoryBacking12commit_innerEmm(ptr noundef nonnull align 8 dereferenceable(41) %0, i64 noundef %1, i64 noundef %2)
  br i1 %4, label %17, label %5

5:                                                ; preds = %3
  %6 = icmp ult i64 %2, 4194304
  br i1 %6, label %._crit_edge, label %.lr.ph.preheader

.lr.ph.preheader:                                 ; preds = %5
  %7 = add i64 %2, %1
  br label %.lr.ph

._crit_edge:                                      ; preds = %.lr.ph, %5
  %.018.lcssa = phi i64 [ %1, %5 ], [ %.119, %.lr.ph ]
  %8 = sub i64 %.018.lcssa, %1
  br label %17

.lr.ph:                                           ; preds = %.lr.ph.preheader, %.lr.ph
  %9 = phi i64 [ %15, %.lr.ph ], [ %2, %.lr.ph.preheader ]
  %.023 = phi i64 [ %.1, %.lr.ph ], [ %7, %.lr.ph.preheader ]
  %.01822 = phi i64 [ %.119, %.lr.ph ], [ %1, %.lr.ph.preheader ]
  %10 = lshr i64 %9, 1
  %11 = and i64 %10, 9223372036852678656
  %12 = tail call noundef zeroext i1 @_ZNK22XPhysicalMemoryBacking12commit_innerEmm(ptr noundef nonnull align 8 dereferenceable(41) %0, i64 noundef %.01822, i64 noundef %11)
  %13 = select i1 %12, i64 %11, i64 0
  %.119 = add i64 %13, %.01822
  %14 = select i1 %12, i64 0, i64 %11
  %.1 = sub i64 %.023, %14
  %15 = sub i64 %.1, %.119
  %16 = icmp ult i64 %15, 4194304
  br i1 %16, label %._crit_edge, label %.lr.ph, !llvm.loop !11

17:                                               ; preds = %3, %._crit_edge
  %.020 = phi i64 [ %8, %._crit_edge ], [ %2, %3 ]
  ret i64 %.020
}